target datalayout = "e-m:e-p270:32:32-p271:32:32-p272:64:64-i64:64-i128:128-f80:128-n8:16:32:64-S128"
target triple = "x86_64-pc-linux-gnu"

%struct._cms_io_handler = type { ptr, ptr, i32, i32, [256 x i8], ptr, ptr, ptr, ptr, ptr }
%struct._cms_iccprofile_struct = type { ptr, ptr, %struct.tm, i32, i32, i32, i32, i32, i32, i32, i32, i32, i32, i64, i32, %union.cmsProfileID, i32, [100 x i32], [100 x i32], [100 x i32], [100 x i32], [100 x i32], [100 x ptr], [100 x ptr], i32, ptr }
%struct.tm = type { i32, i32, i32, i32, i32, i32, i32, i32, i32, i64, ptr }
%union.cmsProfileID = type { [4 x i32] }

@.str.15 = private unnamed_addr constant [2 x i8] c"w\00", align 1

; Function Attrs: nounwind uwtable
define hidden i32 @cmsCloseIOhandler(ptr noundef %0) #0 {
  %2 = alloca ptr, align 8
  store ptr %0, ptr %2, align 8
  %3 = load ptr, ptr %2, align 8
  %4 = getelementptr inbounds %struct._cms_io_handler, ptr %3, i32 0, i32 7
  %5 = load ptr, ptr %4, align 8
  %6 = load ptr, ptr %2, align 8
  %7 = call i32 %5(ptr noundef %6)
  ret i32 %7
}

; Function Attrs: nounwind uwtable
define hidden ptr @cmsGetProfileContextID(ptr noundef %0) #0 {
  %2 = alloca ptr, align 8
  %3 = alloca ptr, align 8
  %4 = alloca ptr, align 8
  store ptr %0, ptr %3, align 8
  %5 = load ptr, ptr %3, align 8
  store ptr %5, ptr %4, align 8
  %6 = load ptr, ptr %4, align 8
  %7 = icmp eq ptr %6, null
  br i1 %7, label %8, label %9

8:                                                ; preds = %1
  store ptr null, ptr %2, align 8
  br label %13

9:                                                ; preds = %1
  %10 = load ptr, ptr %4, align 8
  %11 = getelementptr inbounds %struct._cms_iccprofile_struct, ptr %10, i32 0, i32 1
  %12 = load ptr, ptr %11, align 8
  store ptr %12, ptr %2, align 8
  br label %13

13:                                               ; preds = %9, %8
  %14 = load ptr, ptr %2, align 8
  ret ptr %14
}

; Function Attrs: nounwind uwtable
define hidden i32 @cmsSaveProfileToMem(ptr noundef %0, ptr noundef %1, ptr noundef %2) #0 {
  %4 = alloca i32, align 4
  %5 = alloca ptr, align 8
  %6 = alloca ptr, align 8
  %7 = alloca ptr, align 8
  %8 = alloca i32, align 4
  %9 = alloca ptr, align 8
  %10 = alloca ptr, align 8
  store ptr %0, ptr %5, align 8
  store ptr %1, ptr %6, align 8
  store ptr %2, ptr %7, align 8
  %11 = load ptr, ptr %5, align 8
  %12 = call ptr @cmsGetProfileContextID(ptr noundef %11)
  store ptr %12, ptr %10, align 8
  %13 = load ptr, ptr %6, align 8
  %14 = icmp eq ptr %13, null
  br i1 %14, label %15, label %23

15:                                               ; preds = %3
  %16 = load ptr, ptr %5, align 8
  %17 = call i32 @cmsSaveProfileToIOhandler(ptr noundef %16, ptr noundef null)
  %18 = load ptr, ptr %7, align 8
  store i32 %17, ptr %18, align 4
  %19 = load ptr, ptr %7, align 8
  %20 = load i32, ptr %19, align 4
  %21 = icmp eq i32 %20, 0
  %22 = select i1 %21, i32 0, i32 1
  store i32 %22, ptr %4, align 4
  br label %43

23:                                               ; preds = %3
  %24 = load ptr, ptr %10, align 8
  %25 = load ptr, ptr %6, align 8
  %26 = load ptr, ptr %7, align 8
  %27 = load i32, ptr %26, align 4
  %28 = call ptr @cmsOpenIOhandlerFromMem(ptr noundef %24, ptr noundef %25, i32 noundef %27, ptr noundef @.str.15)
  store ptr %28, ptr %9, align 8
  %29 = load ptr, ptr %9, align 8
  %30 = icmp eq ptr %29, null
  br i1 %30, label %31, label %32

31:                                               ; preds = %23
  store i32 0, ptr %4, align 4
  br label %43

32:                                               ; preds = %23
  %33 = load ptr, ptr %5, align 8
  %34 = load ptr, ptr %9, align 8
  %35 = call i32 @cmsSaveProfileToIOhandler(ptr noundef %33, ptr noundef %34)
  %36 = icmp ne i32 %35, 0
  %37 = zext i1 %36 to i32
  store i32 %37, ptr %8, align 4
  %38 = load ptr, ptr %9, align 8
  %39 = call i32 @cmsCloseIOhandler(ptr noundef %38)
  %40 = load i32, ptr %8, align 4
  %41 = and i32 %40, %39
  store i32 %41, ptr %8, align 4
  %42 = load i32, ptr %8, align 4
  store i32 %42, ptr %4, align 4
  br label %43

43:                                               ; preds = %32, %31, %15
  %44 = load i32, ptr %4, align 4
  ret i32 %44
}