; Function Attrs: nounwind uwtable
define hidden range(i32 0, 2) i32 @cmsSaveProfileToMem(ptr noundef %0, ptr noundef %1, ptr nocapture noundef %2) local_unnamed_addr #0 {
  %4 = icmp eq ptr %0, null
  br i1 %4, label %cmsGetProfileContextID.exit, label %5

5:                                                ; preds = %3
  %6 = getelementptr inbounds i8, ptr %0, i64 8
  %7 = load ptr, ptr %6, align 8
  br label %cmsGetProfileContextID.exit

cmsGetProfileContextID.exit:                      ; preds = %3, %5
  %.0.i = phi ptr [ %7, %5 ], [ null, %3 ]
  %8 = icmp eq ptr %1, null
  br i1 %8, label %9, label %13

9:                                                ; preds = %cmsGetProfileContextID.exit
  %10 = tail call i32 @cmsSaveProfileToIOhandler(ptr noundef %0, ptr noundef null)
  store i32 %10, ptr %2, align 4
  %11 = icmp ne i32 %10, 0
  %12 = zext i1 %11 to i32
  br label %24

13:                                               ; preds = %cmsGetProfileContextID.exit
  %14 = load i32, ptr %2, align 4
  %15 = tail call ptr @cmsOpenIOhandlerFromMem(ptr noundef %.0.i, ptr noundef nonnull %1, i32 noundef %14, ptr noundef nonnull @.str.15)
  %16 = icmp eq ptr %15, null
  br i1 %16, label %24, label %17

17:                                               ; preds = %13
  %18 = tail call i32 @cmsSaveProfileToIOhandler(ptr noundef %0, ptr noundef nonnull %15)
  %.not = icmp eq i32 %18, 0
  %19 = getelementptr inbounds i8, ptr %15, i64 296
  %20 = load ptr, ptr %19, align 8
  %21 = tail call i32 %20(ptr noundef nonnull %15) #19
  %22 = and i32 %21, 1
  %23 = select i1 %.not, i32 0, i32 %22
  br label %24

24:                                               ; preds = %13, %17, %9
  %.0 = phi i32 [ %12, %9 ], [ %23, %17 ], [ 0, %13 ]
  ret i32 %.0
}